; Function Attrs: nounwind uwtable
define dso_local void @ArrayCheckBounds(i32 noundef %0, ptr noundef readonly captures(none) %1, ptr noundef readonly captures(none) %2) local_unnamed_addr #2 {
  %4 = icmp slt i32 %0, 1
  br i1 %4, label %ArrayCheckBoundsSafe.exit, label %.critedge.preheader.i

.critedge.preheader.i:                            ; preds = %3
  %wide.trip.count.i = zext nneg i32 %0 to i64
  br label %.critedge.i

5:                                                ; preds = %.critedge.i
  %indvars.iv.next.i = add nuw nsw i64 %indvars.iv.i, 1
  %exitcond.not.i = icmp eq i64 %indvars.iv.next.i, %wide.trip.count.i
  br i1 %exitcond.not.i, label %ArrayCheckBoundsSafe.exit, label %.critedge.i, !llvm.loop !7

.critedge.i:                                      ; preds = %5, %.critedge.preheader.i
  %indvars.iv.i = phi i64 [ 0, %.critedge.preheader.i ], [ %indvars.iv.next.i, %5 ]
  %6 = getelementptr inbounds nuw i32, ptr %1, i64 %indvars.iv.i
  %7 = load i32, ptr %6, align 4
  %8 = getelementptr inbounds nuw i32, ptr %2, i64 %indvars.iv.i
  %9 = load i32, ptr %8, align 4
  %10 = tail call { i32, i1 } @llvm.sadd.with.overflow.i32(i32 %7, i32 %9)
  %11 = extractvalue { i32, i1 } %10, 1
  br i1 %11, label %12, label %5

12:                                               ; preds = %.critedge.i
  %13 = tail call zeroext i1 @errsave_start(ptr noundef null, ptr noundef null) #8
  br i1 %13, label %14, label %ArrayCheckBoundsSafe.exit

14:                                               ; preds = %12
  %15 = getelementptr inbounds nuw i32, ptr %2, i64 %indvars.iv.i
  %16 = tail call i32 @errcode(i32 noundef 261) #8
  %17 = load i32, ptr %15, align 4
  %18 = tail call i32 (ptr, ...) @errmsg(ptr noundef nonnull @.str.2, i32 noundef %17) #8
  tail call void @errsave_finish(ptr noundef null, ptr noundef nonnull @.str.1, i32 noundef 141, ptr noundef nonnull @__func__.ArrayCheckBoundsSafe) #8
  br label %ArrayCheckBoundsSafe.exit

ArrayCheckBoundsSafe.exit:                        ; preds = %5, %3, %12, %14
  ret void
}